target datalayout = "e-m:e-p270:32:32-p271:32:32-p272:64:64-i64:64-i128:128-f80:128-n8:16:32:64-S128"
target triple = "x86_64-pc-linux-gnu"

%"class.llvm::MCSymbol" = type { ptr, i64, i32, %union.anon }
%union.anon = type { i64 }

; Function Attrs: mustprogress nounwind uwtable
define linkonce_odr hidden void @_ZNK4llvm8MCSymbol8setFlagsEj(ptr noundef nonnull align 8 dereferenceable(32) %0, i32 noundef %1) #0 comdat align 2 {
  %3 = alloca ptr, align 8
  %4 = alloca i32, align 4
  store ptr %0, ptr %3, align 8
  store i32 %1, ptr %4, align 4
  %5 = load ptr, ptr %3, align 8
  %6 = load i32, ptr %4, align 4
  %7 = getelementptr inbounds nuw %"class.llvm::MCSymbol", ptr %5, i32 0, i32 1
  %8 = zext i32 %6 to i64
  %9 = load i64, ptr %7, align 8
  %10 = and i64 %8, 65535
  %11 = shl i64 %10, 32
  %12 = and i64 %9, -281470681743361
  %13 = or i64 %12, %11
  store i64 %13, ptr %7, align 8
  ret void
}

; Function Attrs: mustprogress nounwind uwtable
define linkonce_odr hidden noundef i32 @_ZNK4llvm8MCSymbol8getFlagsEv(ptr noundef nonnull align 8 dereferenceable(32) %0) #0 comdat align 2 {
  %2 = alloca ptr, align 8
  store ptr %0, ptr %2, align 8
  %3 = load ptr, ptr %2, align 8
  %4 = getelementptr inbounds nuw %"class.llvm::MCSymbol", ptr %3, i32 0, i32 1
  %5 = load i64, ptr %4, align 8
  %6 = lshr i64 %5, 32
  %7 = and i64 %6, 65535
  %8 = trunc i64 %7 to i32
  ret i32 %8
}

; Function Attrs: mustprogress nounwind uwtable
define dso_local void @_ZNK4llvm11MCSymbolELF7setTypeEj(ptr noundef nonnull align 8 dereferenceable(40) %0, i32 noundef %1) #0 align 2 {
  %3 = alloca ptr, align 8
  %4 = alloca i32, align 4
  %5 = alloca i32, align 4
  %6 = alloca i32, align 4
  store ptr %0, ptr %3, align 8
  store i32 %1, ptr %4, align 4
  %7 = load ptr, ptr %3, align 8
  %8 = load i32, ptr %4, align 4
  switch i32 %8, label %9 [
    i32 0, label %10
    i32 1, label %11
    i32 2, label %12
    i32 3, label %13
    i32 5, label %14
    i32 6, label %15
    i32 10, label %16
  ]

9:                                                ; preds = %2
  unreachable

10:                                               ; preds = %2
  store i32 0, ptr %5, align 4
  br label %17

11:                                               ; preds = %2
  store i32 1, ptr %5, align 4
  br label %17

12:                                               ; preds = %2
  store i32 2, ptr %5, align 4
  br label %17

13:                                               ; preds = %2
  store i32 3, ptr %5, align 4
  br label %17

14:                                               ; preds = %2
  store i32 4, ptr %5, align 4
  br label %17

15:                                               ; preds = %2
  store i32 5, ptr %5, align 4
  br label %17

16:                                               ; preds = %2
  store i32 6, ptr %5, align 4
  br label %17

17:                                               ; preds = %16, %15, %14, %13, %12, %11, %10
  %18 = call noundef i32 @_ZNK4llvm8MCSymbol8getFlagsEv(ptr noundef nonnull align 8 dereferenceable(32) %7)
  %19 = and i32 %18, -8
  store i32 %19, ptr %6, align 4
  %20 = load i32, ptr %6, align 4
  %21 = load i32, ptr %5, align 4
  %22 = shl i32 %21, 0
  %23 = or i32 %20, %22
  call void @_ZNK4llvm8MCSymbol8setFlagsEj(ptr noundef nonnull align 8 dereferenceable(32) %7, i32 noundef %23)
  ret void
}